target datalayout = "e-m:e-p270:32:32-p271:32:32-p272:64:64-i64:64-i128:128-f80:128-n8:16:32:64-S128"
target triple = "x86_64-pc-linux-gnu"

%struct.CurrencyNameCacheEntry = type { [157 x i8], ptr, i32, ptr, i32, i32 }
%struct.CurrencyNameStruct = type { ptr, ptr, i32, i32 }

; Function Attrs: mustprogress uwtable
define internal void @_ZL19deleteCurrencyNamesP18CurrencyNameStructi(ptr noundef %0, i32 noundef %1) #1 {
  %3 = alloca ptr, align 8
  %4 = alloca i32, align 4
  %5 = alloca i32, align 4
  store ptr %0, ptr %3, align 8, !tbaa !22
  store i32 %1, ptr %4, align 4, !tbaa !14
  call void @llvm.lifetime.start.p0(i64 4, ptr %5) #12
  store i32 0, ptr %5, align 4, !tbaa !14
  br label %6

6:                                                ; preds = %28, %2
  %7 = load i32, ptr %5, align 4, !tbaa !14
  %8 = load i32, ptr %4, align 4, !tbaa !14
  %9 = icmp slt i32 %7, %8
  br i1 %9, label %11, label %10

10:                                               ; preds = %6
  call void @llvm.lifetime.end.p0(i64 4, ptr %5) #12
  br label %31

11:                                               ; preds = %6
  %12 = load ptr, ptr %3, align 8, !tbaa !22
  %13 = load i32, ptr %5, align 4, !tbaa !14
  %14 = sext i32 %13 to i64
  %15 = getelementptr inbounds %struct.CurrencyNameStruct, ptr %12, i64 %14
  %16 = getelementptr inbounds nuw %struct.CurrencyNameStruct, ptr %15, i32 0, i32 3
  %17 = load i32, ptr %16, align 4, !tbaa !143
  %18 = and i32 %17, 1
  %19 = icmp ne i32 %18, 0
  br i1 %19, label %20, label %27

20:                                               ; preds = %11
  %21 = load ptr, ptr %3, align 8, !tbaa !22
  %22 = load i32, ptr %5, align 4, !tbaa !14
  %23 = sext i32 %22 to i64
  %24 = getelementptr inbounds %struct.CurrencyNameStruct, ptr %21, i64 %23
  %25 = getelementptr inbounds nuw %struct.CurrencyNameStruct, ptr %24, i32 0, i32 1
  %26 = load ptr, ptr %25, align 8, !tbaa !101
  call void @uprv_free_77(ptr noundef %26)
  br label %27

27:                                               ; preds = %20, %11
  br label %28

28:                                               ; preds = %27
  %29 = load i32, ptr %5, align 4, !tbaa !14
  %30 = add nsw i32 %29, 1
  store i32 %30, ptr %5, align 4, !tbaa !14
  br label %6, !llvm.loop !144

31:                                               ; preds = %10
  %32 = load ptr, ptr %3, align 8, !tbaa !22
  call void @uprv_free_77(ptr noundef %32)
  ret void
}

; Function Attrs: mustprogress uwtable
define internal void @_ZL16deleteCacheEntryP22CurrencyNameCacheEntry(ptr noundef %0) #1 {
  %2 = alloca ptr, align 8
  store ptr %0, ptr %2, align 8, !tbaa !22
  %3 = load ptr, ptr %2, align 8, !tbaa !22
  %4 = getelementptr inbounds nuw %struct.CurrencyNameCacheEntry, ptr %3, i32 0, i32 1
  %5 = load ptr, ptr %4, align 8, !tbaa !80
  %6 = load ptr, ptr %2, align 8, !tbaa !22
  %7 = getelementptr inbounds nuw %struct.CurrencyNameCacheEntry, ptr %6, i32 0, i32 2
  %8 = load i32, ptr %7, align 8, !tbaa !78
  call void @_ZL19deleteCurrencyNamesP18CurrencyNameStructi(ptr noundef %5, i32 noundef %8)
  %9 = load ptr, ptr %2, align 8, !tbaa !22
  %10 = getelementptr inbounds nuw %struct.CurrencyNameCacheEntry, ptr %9, i32 0, i32 3
  %11 = load ptr, ptr %10, align 8, !tbaa !82
  %12 = load ptr, ptr %2, align 8, !tbaa !22
  %13 = getelementptr inbounds nuw %struct.CurrencyNameCacheEntry, ptr %12, i32 0, i32 4
  %14 = load i32, ptr %13, align 8, !tbaa !81
  call void @_ZL19deleteCurrencyNamesP18CurrencyNameStructi(ptr noundef %11, i32 noundef %14)
  %15 = load ptr, ptr %2, align 8, !tbaa !22
  call void @uprv_free_77(ptr noundef %15)
  ret void
}