; Function Attrs: mustprogress uwtable
define internal fastcc void @_ZL16deleteCacheEntryP22CurrencyNameCacheEntry(ptr noundef %0) unnamed_addr #1 {
  %2 = getelementptr inbounds nuw i8, ptr %0, i64 160
  %3 = load ptr, ptr %2, align 8, !tbaa !45
  %4 = getelementptr inbounds nuw i8, ptr %0, i64 168
  %5 = load i32, ptr %4, align 8, !tbaa !43
  %6 = icmp sgt i32 %5, 0
  br i1 %6, label %.lr.ph.preheader.i, label %_ZL19deleteCurrencyNamesP18CurrencyNameStructi.exit

.lr.ph.preheader.i:                               ; preds = %1
  %wide.trip.count.i = zext nneg i32 %5 to i64
  br label %.lr.ph.i

.lr.ph.i:                                         ; preds = %14, %.lr.ph.preheader.i
  %indvars.iv.i = phi i64 [ 0, %.lr.ph.preheader.i ], [ %indvars.iv.next.i, %14 ]
  %7 = getelementptr inbounds nuw %struct.CurrencyNameStruct, ptr %3, i64 %indvars.iv.i
  %8 = getelementptr inbounds nuw i8, ptr %7, i64 20
  %9 = load i32, ptr %8, align 4, !tbaa !73
  %10 = and i32 %9, 1
  %.not.i = icmp eq i32 %10, 0
  br i1 %.not.i, label %14, label %11

11:                                               ; preds = %.lr.ph.i
  %12 = getelementptr inbounds nuw i8, ptr %7, i64 8
  %13 = load ptr, ptr %12, align 8, !tbaa !74
  tail call void @uprv_free_77(ptr noundef %13)
  br label %14

14:                                               ; preds = %11, %.lr.ph.i
  %indvars.iv.next.i = add nuw nsw i64 %indvars.iv.i, 1
  %exitcond.not.i = icmp eq i64 %indvars.iv.next.i, %wide.trip.count.i
  br i1 %exitcond.not.i, label %_ZL19deleteCurrencyNamesP18CurrencyNameStructi.exit, label %.lr.ph.i, !llvm.loop !75

_ZL19deleteCurrencyNamesP18CurrencyNameStructi.exit: ; preds = %14, %1
  tail call void @uprv_free_77(ptr noundef %3)
  %15 = getelementptr inbounds nuw i8, ptr %0, i64 176
  %16 = load ptr, ptr %15, align 8, !tbaa !47
  %17 = getelementptr inbounds nuw i8, ptr %0, i64 184
  %18 = load i32, ptr %17, align 8, !tbaa !46
  %19 = icmp sgt i32 %18, 0
  br i1 %19, label %.lr.ph.preheader.i5, label %_ZL19deleteCurrencyNamesP18CurrencyNameStructi.exit12

.lr.ph.preheader.i5:                              ; preds = %_ZL19deleteCurrencyNamesP18CurrencyNameStructi.exit
  %wide.trip.count.i6 = zext nneg i32 %18 to i64
  br label %.lr.ph.i7

.lr.ph.i7:                                        ; preds = %27, %.lr.ph.preheader.i5
  %indvars.iv.i8 = phi i64 [ 0, %.lr.ph.preheader.i5 ], [ %indvars.iv.next.i10, %27 ]
  %20 = getelementptr inbounds nuw %struct.CurrencyNameStruct, ptr %16, i64 %indvars.iv.i8
  %21 = getelementptr inbounds nuw i8, ptr %20, i64 20
  %22 = load i32, ptr %21, align 4, !tbaa !73
  %23 = and i32 %22, 1
  %.not.i9 = icmp eq i32 %23, 0
  br i1 %.not.i9, label %27, label %24

24:                                               ; preds = %.lr.ph.i7
  %25 = getelementptr inbounds nuw i8, ptr %20, i64 8
  %26 = load ptr, ptr %25, align 8, !tbaa !74
  tail call void @uprv_free_77(ptr noundef %26)
  br label %27

27:                                               ; preds = %24, %.lr.ph.i7
  %indvars.iv.next.i10 = add nuw nsw i64 %indvars.iv.i8, 1
  %exitcond.not.i11 = icmp eq i64 %indvars.iv.next.i10, %wide.trip.count.i6
  br i1 %exitcond.not.i11, label %_ZL19deleteCurrencyNamesP18CurrencyNameStructi.exit12, label %.lr.ph.i7, !llvm.loop !75

_ZL19deleteCurrencyNamesP18CurrencyNameStructi.exit12: ; preds = %27, %_ZL19deleteCurrencyNamesP18CurrencyNameStructi.exit
  tail call void @uprv_free_77(ptr noundef %16)
  tail call void @uprv_free_77(ptr noundef %0)
  ret void
}